(lp0
(S'start'
p1
F-1.5225668351513739
F9.9312643320960916
F39.766691343328127
F0.069868780508122993
tp2
a(S'pipe_to_buoys'
p3
F5.4130976421149901
F20.485862523848901
F56.434050379095623
F1.1530655966849466
tp4
a(S'buoys'
p5
F7.1954522689514873
F24.42865389248248
F46.03542355474741
F1.2977237407913138
tp6
a(S'orange_buoy'
p7
F7.2029750465239424
F24.439912951291394
F58.41245748967826
F1.0178315033271834
tp8
a(S'green_buoy'
p9
F6.5366369965117954
F24.813756049901272
F69.09260880554541
F1.3404470828668165
tp10
a(S'yellow_buoy'
p11
F8.2379128874887222
F24.060822142634738
F68.180150106861831
F1.298563593182928
tp12
a(S'pipe_buoys_to_wire1'
p13
F7.8117968030919256
F26.028947798835507
F69.511967655880369
F1.2648858427657581
tp14
a(S'wire1'
p15
F9.6248462336068474
F29.751843104109231
F40.402647429190701
F1.7681257149440859
tp16
a(S'pipe_wire1_to_emperor'
p17
F11.176347367471317
F29.953966933173284
F335.92521184450186
F0.41029621136287286
tp18
a(S'pipe_wire1_to_bins'
p19
F11.508386741224024
F30.813209603772258
F337.73702535132088
F0.72026729001751455
tp20
a(S'bins'
p21
F18.001154933198663
F28.327716774713878
F275.59744683674234
F0.7430547503270124
tp22
a(S'pipe_bins_to_emperor'
p23
F19.195644201582088
F28.727661445242216
F317.4225820532605
F0.55403046697272307
tp24
a(S'pipe_bins_to_wire2'
p25
F19.303016846712275
F29.578222260595265
F9.7713190433931185
F0.70481282384111421
tp26
a(S'torpedoes'
p27
F17.079905556233207
F31.4587702981459
F224.39340292732879
F0.19816132274087592
tp28
a(S'emperor'
p29
F22.677571089659608
F13.143771203985377
F267.79919968059289
F0.64312352957061059
tp30
a(S'wire2'
p31
F26.898893092039376
F29.715905510755505
F357.0927996901757
F1.7304138436662693
tp32
a.