(dp0
S'wire1'
p1
(F19.847413068758222
F89.020578772013138
tp2
sS'pipe_to_buoys'
p3
(F15.635664477266364
F79.75459819175282
tp4
sS'emperor'
p5
(F32.900137924810977
F72.412506871889292
tp6
sS'pipe_wire1_to_bins'
p7
(F21.730953576375398
F90.081945271676176
tp8
sS'buoys'
p9
(F17.418019104102861
F83.697389560386398
tp10
sS'torpedoes'
p11
(F27.30247239138458
F90.727505966049819
tp12
sS'pipe_bins_to_emperor'
p13
(F29.41821103673346
F87.996397113146131
tp14
sS'wire2'
p15
(F37.121459927190749
F88.984641178659416
tp16
sS'yellow_buoy'
p17
(F18.460479722640095
F83.329557810538645
tp18
sS'start'
p19
(F8.6999999999999993
F69.200000000000003
tp20
sS'pipe_bins_to_wire2'
p21
(F29.525583681863647
F88.84695792849918
tp22
sS'orange_buoy'
p23
(F17.425541881675315
F83.708648619195301
tp24
sS'pipe_wire1_to_emperor'
p25
(F21.398914202622692
F89.222702601077202
tp26
sS'green_buoy'
p27
(F16.759203831663168
F84.082491717805183
tp28
sS'bins'
p29
(F28.223721768350035
F87.596452442617789
tp30
sS'pipe_buoys_to_wire1'
p31
(F18.034363638243299
F85.297683466739414
tp32
s.