(dp0
S'bins perp'
p1
(F52.05489421101298
F106.61394135997327
tp2
sS'wire pipe left'
p3
(F39.937639856857146
F105.31165020569846
tp4
sS'wire'
p5
(F37.203303659254836
F104.58067699941671
tp6
sS'bouy pipe'
p7
(F30.35523465547509
F98.69452951858649
tp8
sS'nest pipe left'
p9
(F53.31741668240109
F111.34139672825066
tp10
sS'red heart'
p11
(F46.85712922810148
F111.295426101249
tp12
sS'recovery right'
p13
(F75.0066444963613
F100.6772145534315
tp14
sS'blue heart'
p15
(F55.42494903804371
F113.77960777116714
tp16
sS'recovery 1'
p17
(F69.45763935195936
F97.00496199478644
tp18
sS'start'
p19
(F14.0
F80.0
tp20
sS'nest pipe right'
p21
(F54.76029522895232
F112.51776097522793
tp22
sS'bins pipe'
p23
(F54.15999480521153
F106.20472211308333
tp24
sS'wire pipe right'
p25
(F40.24361719420865
F106.5368414200427
tp26
sS'gate pipe'
p27
(F20.93950556301938
F89.67978484578772
tp28
sS'wire from bins'
p29
(F61.7191905299031
F104.02049908690398
tp30
sS'bins 1'
p31
(F52.119271095355224
F106.93974904587935
tp32
sS'bins 2'
p33
(F51.95858025637778
F105.70296796974642
tp34
sS'buoy'
p35
(F29.099540895002654
F97.39190758862397
tp36
s.