(lp0
(S'start'
p1
F0.11802454611963385
F-2.3689213426243017
F307.97950499439418
F0.037149628829475798
tp2
a(S'pipe_to_buoys'
p3
F10.333809912539309
F-16.495782598072726
F302.38800856298303
F0.57373811966543109
tp4
a(S'buoys'
p5
F15.649249860986782
F-19.854532827838874
F318.34678232507702
F1.4871498172572224
tp6
a(S'orange_buoy'
p7
F15.67746038179498
F-19.83691372866372
F320.5935710643069
F1.4899824876048531
tp8
a(S'green_buoy'
p9
F16.241204408319778
F-19.415243257642572
F343.31817847653656
F1.4797527254450538
tp10
a(S'yellow_buoy'
p11
F15.192408847078299
F-20.795244831814056
F324.83957897372898
F1.5996130471952275
tp12
a(S'pipe_buoys_to_wire1'
p13
F16.976932854342891
F-21.60598995392272
F293.59850925968664
F1.5013632374957979
tp14
a(S'wire1'
p15
F18.974300435754174
F-23.650032033481228
F324.05512021382458
F2.5755354065862952
tp16
a(S'pipe_wire1_to_bins'
p17
F19.604254828171587
F-24.43336886089147
F342.27261256785738
F0.41154716274640829
tp18
a(S'pipe_wire1_to_emperor'
p19
F20.02563663333385
F-23.405623257246624
F348.97903530234555
F0.80316808431000797
tp20
a(S'bins'
p21
F24.031685848034019
F-26.845724903995944
F263.30083172521489
F0.68417013232590462
tp22
a(S'pipe_bins_to_wire2'
p23
F26.132728540101912
F-26.324868243156072
F17.354388252902766
F0.66449209211381721
tp24
a(S'pipe_bins_to_emperor'
p25
F25.806471475247438
F-25.382634463060473
F52.186066677042334
F0.6838302493277072
tp26
a(S'emperor'
p27
F26.297219677513766
F-4.3956651907839728
F113.6536410762904
F0.99100721418015492
tp28
a(S'torpedoes'
p29
F24.010563780205324
F-24.09680059268722
F347.43642900488629
F0.045267043580295797
tp30
a(S'bins2'
p31
F24.132458397804257
F-26.34595728597602
F245.97033601374713
F0.24667495164563213
tp32
a(S'wire2'
p33
F37.22658979783413
F-19.001423465635014
F15.869093734837184
F1.7590820345716962
tp34
a.