(dp0
S'blue hearts'
p1
(F45.67388891987382
F57.69453643650637
tp2
sS'bins perp'
p3
(F40.81353070739222
F49.46987645490591
tp4
sS'wire pipe left'
p5
(F32.33034906593199
F55.78718802845725
tp6
sS'wire'
p7
(F30.67453125032594
F57.006264809147254
tp8
sS'wire pipe right'
p9
(F32.84375963969704
F56.13243796416027
tp10
sS'recovery'
p11
(F65.14715300032613
F58.12354074423838
tp12
sS'nest pipe left'
p13
(F44.29109752012448
F55.90995706477065
tp14
sS'wire 2'
p15
(F50.979822936543385
F52.12185192565716
tp16
sS'bins 1'
p17
(F41.05166117893603
F50.59478170783986
tp18
sS'start'
p19
(F14.0
F80.0
tp20
sS'nest pipe right'
p21
(F46.23280245463836
F57.60054821405999
tp22
sS'bins pipe'
p23
(F42.80228062917642
F48.856892357363634
tp24
sS'gate pipe'
p25
(F18.91704899801008
F72.70329335784574
tp26
sS'buoy pipe'
p27
(F25.39850163410365
F64.36260301902738
tp28
sS'red hearts'
p29
(F39.961987102043935
F57.87582055581368
tp30
sS'bins 2'
p31
(F40.60497392076191
F49.02676302148393
tp32
sS'buoy'
p33
(F24.872207308393662
F66.20268338704334
tp34
s.