(dp0
S'pipe_bins_to_wire'
p1
(F11.588767670217461
F8.588511390923566
tp2
sS'wire'
p3
(F5.8580085512794291
F12.562944150425265
tp4
sS'buoys'
p5
(F11.863671387058183
F16.298959211246718
tp6
sS'torpedoes'
p7
(F11.326779394450829
F6.361143926780894
tp8
sS'yellow_buoy'
p9
(F11.907708890787827
F16.34119058443358
tp10
sS'start'
p11
(F11.300000000000001
F24.0
tp12
sS'bins'
p13
(F12.791983836603178
F9.0190526015028745
tp14
sS'pipe_to_emperor'
p15
(F3.7797471298016987
F11.697590694434108
tp16
sS'orange_buoy'
p17
(F10.953719756238945
F17.003995597922007
tp18
sS'emperor'
p19
(F5.6051787085851652
F4.4808846660230657
tp20
sS'green_buoy'
p21
(F12.999166971863243
F16.781734643322281
tp22
sS'pipe_to_bins'
p23
(F4.2080675707306199
F12.219247331928642
tp24
sS'buoys_pipe_to_emperor'
p25
(F11.781496811206303
F13.219960694114141
tp26
s.